target datalayout = "e-m:e-p270:32:32-p271:32:32-p272:64:64-i64:64-i128:128-f80:128-n8:16:32:64-S128"
target triple = "x86_64-pc-linux-gnu"

%struct.formnode = type { i16, i16, i16, i32, i32, i32, i32, i16, i16, i16, i32, ptr, ptr, ptr, ptr, ptr, ptr, ptr, ptr, ptr, ptr, ptr }
%struct.fieldnode = type { i16, i16, i16, i16, i16, i32, i32, i32, i32, i16, i16, i16, i16, i32, i32, i32, i32, ptr, ptr, ptr, ptr, ptr, ptr, ptr, ptr }

; Function Attrs: nounwind uwtable
define internal i32 @Field_Editing(ptr noundef %0, ptr noundef %1) #0 {
  %3 = alloca ptr, align 8
  %4 = alloca ptr, align 8
  %5 = alloca i32, align 4
  store ptr %0, ptr %3, align 8, !tbaa !95
  store ptr %1, ptr %4, align 8, !tbaa !4
  call void @llvm.lifetime.start.p0(i64 4, ptr %5) #9
  store i32 -12, ptr %5, align 4, !tbaa !35
  %6 = load ptr, ptr %3, align 8, !tbaa !95
  %7 = icmp eq ptr %6, @FE_Delete_Previous
  br i1 %7, label %8, label %27

8:                                                ; preds = %2
  %9 = load ptr, ptr %4, align 8, !tbaa !4
  %10 = getelementptr inbounds nuw %struct.formnode, ptr %9, i32 0, i32 10
  %11 = load i32, ptr %10, align 8, !tbaa !107
  %12 = and i32 %11, 2
  %13 = icmp ne i32 %12, 0
  br i1 %13, label %14, label %27

14:                                               ; preds = %8
  %15 = load ptr, ptr %4, align 8, !tbaa !4
  %16 = getelementptr inbounds nuw %struct.formnode, ptr %15, i32 0, i32 3
  %17 = load i32, ptr %16, align 8, !tbaa !21
  %18 = icmp eq i32 %17, 0
  br i1 %18, label %19, label %27

19:                                               ; preds = %14
  %20 = load ptr, ptr %4, align 8, !tbaa !4
  %21 = getelementptr inbounds nuw %struct.formnode, ptr %20, i32 0, i32 4
  %22 = load i32, ptr %21, align 4, !tbaa !22
  %23 = icmp eq i32 %22, 0
  br i1 %23, label %24, label %27

24:                                               ; preds = %19
  %25 = load ptr, ptr %4, align 8, !tbaa !4
  %26 = call i32 @Inter_Field_Navigation(ptr noundef @FN_Previous_Field, ptr noundef %25)
  store i32 %26, ptr %5, align 4, !tbaa !35
  br label %78

27:                                               ; preds = %19, %14, %8, %2
  %28 = load ptr, ptr %3, align 8, !tbaa !95
  %29 = icmp eq ptr %28, @FE_New_Line
  br i1 %29, label %30, label %54

30:                                               ; preds = %27
  %31 = load ptr, ptr %4, align 8, !tbaa !4
  %32 = getelementptr inbounds nuw %struct.formnode, ptr %31, i32 0, i32 10
  %33 = load i32, ptr %32, align 8, !tbaa !107
  %34 = and i32 %33, 1
  %35 = icmp ne i32 %34, 0
  br i1 %35, label %36, label %49

36:                                               ; preds = %30
  %37 = load ptr, ptr %4, align 8, !tbaa !4
  %38 = getelementptr inbounds nuw %struct.formnode, ptr %37, i32 0, i32 3
  %39 = load i32, ptr %38, align 8, !tbaa !21
  %40 = icmp eq i32 %39, 0
  br i1 %40, label %41, label %49

41:                                               ; preds = %36
  %42 = load ptr, ptr %4, align 8, !tbaa !4
  %43 = getelementptr inbounds nuw %struct.formnode, ptr %42, i32 0, i32 4
  %44 = load i32, ptr %43, align 4, !tbaa !22
  %45 = icmp eq i32 %44, 0
  br i1 %45, label %46, label %49

46:                                               ; preds = %41
  %47 = load ptr, ptr %4, align 8, !tbaa !4
  %48 = call i32 @Inter_Field_Navigation(ptr noundef @FN_Next_Field, ptr noundef %47)
  store i32 %48, ptr %5, align 4, !tbaa !35
  br label %53

49:                                               ; preds = %41, %36, %30
  %50 = load ptr, ptr %3, align 8, !tbaa !95
  %51 = load ptr, ptr %4, align 8, !tbaa !4
  %52 = call i32 %50(ptr noundef %51)
  store i32 %52, ptr %5, align 4, !tbaa !35
  br label %53

53:                                               ; preds = %49, %46
  br label %77

54:                                               ; preds = %27
  %55 = load ptr, ptr %4, align 8, !tbaa !4
  %56 = getelementptr inbounds nuw %struct.formnode, ptr %55, i32 0, i32 15
  %57 = load ptr, ptr %56, align 8, !tbaa !16
  %58 = getelementptr inbounds nuw %struct.fieldnode, ptr %57, i32 0, i32 16
  %59 = load i32, ptr %58, align 8, !tbaa !23
  %60 = and i32 %59, 8
  %61 = icmp ne i32 %60, 0
  br i1 %61, label %62, label %76

62:                                               ; preds = %54
  %63 = load ptr, ptr %3, align 8, !tbaa !95
  %64 = load ptr, ptr %4, align 8, !tbaa !4
  %65 = call i32 %63(ptr noundef %64)
  store i32 %65, ptr %5, align 4, !tbaa !35
  %66 = load i32, ptr %5, align 4, !tbaa !35
  %67 = icmp eq i32 %66, 0
  br i1 %67, label %68, label %75

68:                                               ; preds = %62
  %69 = load ptr, ptr %4, align 8, !tbaa !4
  %70 = getelementptr inbounds nuw %struct.formnode, ptr %69, i32 0, i32 0
  %71 = load i16, ptr %70, align 8, !tbaa !47
  %72 = zext i16 %71 to i32
  %73 = or i32 %72, 16
  %74 = trunc i32 %73 to i16
  store i16 %74, ptr %70, align 8, !tbaa !47
  br label %75

75:                                               ; preds = %68, %62
  br label %76

76:                                               ; preds = %75, %54
  br label %77

77:                                               ; preds = %76, %53
  br label %78

78:                                               ; preds = %77, %24
  %79 = load i32, ptr %5, align 4, !tbaa !35
  call void @llvm.lifetime.end.p0(i64 4, ptr %5) #9
  ret i32 %79
}