; Function Attrs: nounwind uwtable
define internal i32 @Field_Editing(ptr noundef readonly %0, ptr noundef %1) #0 {
  %3 = icmp eq ptr %0, @FE_Delete_Previous
  br i1 %3, label %4, label %18

4:                                                ; preds = %2
  %5 = getelementptr inbounds nuw i8, ptr %1, i64 32
  %6 = load i32, ptr %5, align 8, !tbaa !100
  %7 = and i32 %6, 2
  %.not = icmp eq i32 %7, 0
  br i1 %.not, label %.thread, label %8

8:                                                ; preds = %4
  %9 = getelementptr inbounds nuw i8, ptr %1, i64 8
  %10 = load i32, ptr %9, align 8, !tbaa !17
  %11 = icmp eq i32 %10, 0
  br i1 %11, label %12, label %.thread

12:                                               ; preds = %8
  %13 = getelementptr inbounds nuw i8, ptr %1, i64 12
  %14 = load i32, ptr %13, align 4, !tbaa !18
  %15 = icmp eq i32 %14, 0
  br i1 %15, label %16, label %.thread

16:                                               ; preds = %12
  %17 = tail call i32 @Inter_Field_Navigation(ptr noundef nonnull @FN_Previous_Field, ptr noundef nonnull %1)
  br label %47

18:                                               ; preds = %2
  %19 = icmp eq ptr %0, @FE_New_Line
  br i1 %19, label %20, label %.thread

20:                                               ; preds = %18
  %21 = getelementptr inbounds nuw i8, ptr %1, i64 32
  %22 = load i32, ptr %21, align 8, !tbaa !100
  %23 = and i32 %22, 1
  %.not21 = icmp eq i32 %23, 0
  br i1 %.not21, label %34, label %24

24:                                               ; preds = %20
  %25 = getelementptr inbounds nuw i8, ptr %1, i64 8
  %26 = load i32, ptr %25, align 8, !tbaa !17
  %27 = icmp eq i32 %26, 0
  br i1 %27, label %28, label %34

28:                                               ; preds = %24
  %29 = getelementptr inbounds nuw i8, ptr %1, i64 12
  %30 = load i32, ptr %29, align 4, !tbaa !18
  %31 = icmp eq i32 %30, 0
  br i1 %31, label %32, label %34

32:                                               ; preds = %28
  %33 = tail call i32 @Inter_Field_Navigation(ptr noundef nonnull @FN_Next_Field, ptr noundef nonnull %1)
  br label %47

34:                                               ; preds = %28, %24, %20
  %35 = tail call i32 @FE_New_Line(ptr noundef nonnull %1)
  br label %47

.thread:                                          ; preds = %4, %8, %12, %18
  %36 = getelementptr inbounds nuw i8, ptr %1, i64 72
  %37 = load ptr, ptr %36, align 8, !tbaa !14
  %38 = getelementptr inbounds nuw i8, ptr %37, i64 48
  %39 = load i32, ptr %38, align 8, !tbaa !19
  %40 = and i32 %39, 8
  %.not20 = icmp eq i32 %40, 0
  br i1 %.not20, label %47, label %41

41:                                               ; preds = %.thread
  %42 = tail call i32 %0(ptr noundef nonnull %1) #13
  %43 = icmp eq i32 %42, 0
  br i1 %43, label %44, label %47

44:                                               ; preds = %41
  %45 = load i16, ptr %1, align 8, !tbaa !45
  %46 = or i16 %45, 16
  store i16 %46, ptr %1, align 8, !tbaa !45
  br label %47

47:                                               ; preds = %34, %32, %41, %44, %.thread, %16
  %.0 = phi i32 [ %17, %16 ], [ %33, %32 ], [ %35, %34 ], [ 0, %44 ], [ %42, %41 ], [ -12, %.thread ]
  ret i32 %.0
}